Archive member included to satisfy reference by file (symbol)

/home/benjamingr/Documents/casio/gcc/lib/gcc/sh3eb-elf/9.3.0/libgint-cg.a(memory.c.o)
                              build-cg/src/setlevel.c.o (_memcpy)
/home/benjamingr/Documents/casio/gcc/lib/gcc/sh3eb-elf/9.3.0/libgint-cg.a(string.c.o)
                              build-cg/src/drawlevel.c.o (_strlen)
/home/benjamingr/Documents/casio/gcc/lib/gcc/sh3eb-elf/9.3.0/libgint-cg.a(dupdate.c.o)
                              build-cg/src/main.c.o (_dupdate)
/home/benjamingr/Documents/casio/gcc/lib/gcc/sh3eb-elf/9.3.0/libgint-cg.a(dclear.c.o)
                              build-cg/src/drawlevel.c.o (_dclear)
/home/benjamingr/Documents/casio/gcc/lib/gcc/sh3eb-elf/9.3.0/libgint-cg.a(dimage.c.o)
                              build-cg/src/drawlevel.c.o (_dimage)
/home/benjamingr/Documents/casio/gcc/lib/gcc/sh3eb-elf/9.3.0/libgint-cg.a(dvram.c.o)
                              /home/benjamingr/Documents/casio/gcc/lib/gcc/sh3eb-elf/9.3.0/libgint-cg.a(dupdate.c.o) (_gint_vram)
/home/benjamingr/Documents/casio/gcc/lib/gcc/sh3eb-elf/9.3.0/libgint-cg.a(bopti.c.o)
                              /home/benjamingr/Documents/casio/gcc/lib/gcc/sh3eb-elf/9.3.0/libgint-cg.a(dimage.c.o) (_bopti_render_clip)
/home/benjamingr/Documents/casio/gcc/lib/gcc/sh3eb-elf/9.3.0/libgint-cg.a(dprint.c.o)
                              build-cg/src/main.c.o (_dprint)
/home/benjamingr/Documents/casio/gcc/lib/gcc/sh3eb-elf/9.3.0/libgint-cg.a(r61524.c.o)
                              /home/benjamingr/Documents/casio/gcc/lib/gcc/sh3eb-elf/9.3.0/libgint-cg.a(dupdate.c.o) (_r61524_display)
/home/benjamingr/Documents/casio/gcc/lib/gcc/sh3eb-elf/9.3.0/libgint-cg.a(dma.c.o)
                              /home/benjamingr/Documents/casio/gcc/lib/gcc/sh3eb-elf/9.3.0/libgint-cg.a(r61524.c.o) (_dma_transfer)
/home/benjamingr/Documents/casio/gcc/lib/gcc/sh3eb-elf/9.3.0/libgint-cg.a(inth.s.o)
                              /home/benjamingr/Documents/casio/gcc/lib/gcc/sh3eb-elf/9.3.0/libgint-cg.a(dma.c.o) (_inth_dma_te)
/home/benjamingr/Documents/casio/gcc/lib/gcc/sh3eb-elf/9.3.0/libgint-cg.a(memset.c.o)
                              /home/benjamingr/Documents/casio/gcc/lib/gcc/sh3eb-elf/9.3.0/libgint-cg.a(dclear.c.o) (_dma_memset)
/home/benjamingr/Documents/casio/gcc/lib/gcc/sh3eb-elf/9.3.0/libgint-cg.a(intc.c.o)
                              /home/benjamingr/Documents/casio/gcc/lib/gcc/sh3eb-elf/9.3.0/libgint-cg.a(dma.c.o) (_intc_priority)
/home/benjamingr/Documents/casio/gcc/lib/gcc/sh3eb-elf/9.3.0/libgint-cg.a(start.c.o)
                              (_start)
/home/benjamingr/Documents/casio/gcc/lib/gcc/sh3eb-elf/9.3.0/libgint-cg.a(exch.c.o)
                              /home/benjamingr/Documents/casio/gcc/lib/gcc/sh3eb-elf/9.3.0/libgint-cg.a(inth.s.o) (_gint_panic)
/home/benjamingr/Documents/casio/gcc/lib/gcc/sh3eb-elf/9.3.0/libgint-cg.a(hardware.c.o)
                              /home/benjamingr/Documents/casio/gcc/lib/gcc/sh3eb-elf/9.3.0/libgint-cg.a(start.c.o) (_hw_detect)
/home/benjamingr/Documents/casio/gcc/lib/gcc/sh3eb-elf/9.3.0/libgint-cg.a(kernel.c.o)
                              /home/benjamingr/Documents/casio/gcc/lib/gcc/sh3eb-elf/9.3.0/libgint-cg.a(start.c.o) (_kinit)
/home/benjamingr/Documents/casio/gcc/lib/gcc/sh3eb-elf/9.3.0/libgint-cg.a(tlbh.S.o)
                              /home/benjamingr/Documents/casio/gcc/lib/gcc/sh3eb-elf/9.3.0/libgint-cg.a(kernel.c.o) (_gint_tlbh)
/home/benjamingr/Documents/casio/gcc/lib/gcc/sh3eb-elf/9.3.0/libgint-cg.a(keysc.c.o)
                              build-cg/src/main.c.o (_pollevent)
/home/benjamingr/Documents/casio/gcc/lib/gcc/sh3eb-elf/9.3.0/libgint-cg.a(getkey.c.o)
                              /home/benjamingr/Documents/casio/gcc/lib/gcc/sh3eb-elf/9.3.0/libgint-cg.a(keysc.c.o) (_getkey_repeat)
/home/benjamingr/Documents/casio/gcc/lib/gcc/sh3eb-elf/9.3.0/libgint-cg.a(tmu.c.o)
                              /home/benjamingr/Documents/casio/gcc/lib/gcc/sh3eb-elf/9.3.0/libgint-cg.a(keysc.c.o) (_timer_setup)
/home/benjamingr/Documents/casio/gcc/lib/gcc/sh3eb-elf/9.3.0/libgint-cg.a(inth.s.o)
                              /home/benjamingr/Documents/casio/gcc/lib/gcc/sh3eb-elf/9.3.0/libgint-cg.a(tmu.c.o) (_inth_tmu)
/home/benjamingr/Documents/casio/gcc/lib/gcc/sh3eb-elf/9.3.0/libgint-cg.a(stdio.c.o)
                              /home/benjamingr/Documents/casio/gcc/lib/gcc/sh3eb-elf/9.3.0/libgint-cg.a(dprint.c.o) (_vsnprintf)
/home/benjamingr/Documents/casio/gcc/lib/gcc/sh3eb-elf/9.3.0/libgint-cg.a(cpg.c.o)
                              /home/benjamingr/Documents/casio/gcc/lib/gcc/sh3eb-elf/9.3.0/libgint-cg.a(tmu.c.o) (_clock_freq)
/home/benjamingr/Documents/casio/gcc/lib/gcc/sh3eb-elf/9.3.0/libgint-cg.a(bopti-asm.s.o)
                              /home/benjamingr/Documents/casio/gcc/lib/gcc/sh3eb-elf/9.3.0/libgint-cg.a(bopti.c.o) (_bopti_r5g6b5)
/home/benjamingr/Documents/casio/gcc/lib/gcc/sh3eb-elf/9.3.0/libgint-cg.a(topti.c.o)
                              /home/benjamingr/Documents/casio/gcc/lib/gcc/sh3eb-elf/9.3.0/libgint-cg.a(dprint.c.o) (_dtext_opt)
/home/benjamingr/Documents/casio/gcc/lib/gcc/sh3eb-elf/9.3.0/libgint-cg.a(topti.c.o)
                              /home/benjamingr/Documents/casio/gcc/lib/gcc/sh3eb-elf/9.3.0/libgint-cg.a(exch.c.o) (_dfont)
/home/benjamingr/Documents/casio/gcc/lib/gcc/sh3eb-elf/9.3.0/libgint-cg.a(cpu.s.o)
                              /home/benjamingr/Documents/casio/gcc/lib/gcc/sh3eb-elf/9.3.0/libgint-cg.a(kernel.c.o) (_cpu_setVBR)
/home/benjamingr/Documents/casio/gcc/lib/gcc/sh3eb-elf/9.3.0/libgint-cg.a(exch.s.o)
                              /home/benjamingr/Documents/casio/gcc/lib/gcc/sh3eb-elf/9.3.0/libgint-cg.a(kernel.c.o) (_gint_exch)
/home/benjamingr/Documents/casio/gcc/lib/gcc/sh3eb-elf/9.3.0/libgint-cg.a(osmenu.c.o)
                              /home/benjamingr/Documents/casio/gcc/lib/gcc/sh3eb-elf/9.3.0/libgint-cg.a(getkey.c.o) (_gint_osmenu)
/home/benjamingr/Documents/casio/gcc/lib/gcc/sh3eb-elf/9.3.0/libgint-cg.a(syscalls.S.o)
                              /home/benjamingr/Documents/casio/gcc/lib/gcc/sh3eb-elf/9.3.0/libgint-cg.a(osmenu.c.o) (___Timer_Install)
/home/benjamingr/Documents/casio/gcc/lib/gcc/sh3eb-elf/9.3.0/libgint-cg.a(inth.S.o)
                              /home/benjamingr/Documents/casio/gcc/lib/gcc/sh3eb-elf/9.3.0/libgint-cg.a(kernel.c.o) (_gint_inth_7305)
/home/benjamingr/Documents/casio/gcc/lib/gcc/sh3eb-elf/9.3.0/libgint-cg.a(font8x9.png.o)
                              /home/benjamingr/Documents/casio/gcc/lib/gcc/sh3eb-elf/9.3.0/libgint-cg.a(topti.c.o) (_gint_font8x9)
/home/benjamingr/Documents/casio/gcc/lib/gcc/sh3eb-elf/9.3.0/libgint-cg.a(drect.c.o)
                              /home/benjamingr/Documents/casio/gcc/lib/gcc/sh3eb-elf/9.3.0/libgint-cg.a(topti.c.o) (_drect)
/home/benjamingr/Documents/casio/gcc/lib/gcc/sh3eb-elf/9.3.0/libgint-cg.a(topti-asm.s.o)
                              /home/benjamingr/Documents/casio/gcc/lib/gcc/sh3eb-elf/9.3.0/libgint-cg.a(topti.c.o) (_topti_glyph_fg_bg)
/home/benjamingr/Documents/casio/gcc/lib/gcc/sh3eb-elf/9.3.0/m4-nofpu/libgcc.a(_movmem.o)
                              /home/benjamingr/Documents/casio/gcc/lib/gcc/sh3eb-elf/9.3.0/libgint-cg.a(dma.c.o) (___movmemSI24)
/home/benjamingr/Documents/casio/gcc/lib/gcc/sh3eb-elf/9.3.0/m4-nofpu/libgcc.a(_udivdi3.o)
                              /home/benjamingr/Documents/casio/gcc/lib/gcc/sh3eb-elf/9.3.0/libgint-cg.a(tmu.c.o) (___udivdi3)
/home/benjamingr/Documents/casio/gcc/lib/gcc/sh3eb-elf/9.3.0/m4-nofpu/libgcc.a(_umoddi3.o)
                              /home/benjamingr/Documents/casio/gcc/lib/gcc/sh3eb-elf/9.3.0/libgint-cg.a(stdio.c.o) (___umoddi3)
/home/benjamingr/Documents/casio/gcc/lib/gcc/sh3eb-elf/9.3.0/m4-nofpu/libgcc.a(_udiv_qrnnd_16.o)
                              /home/benjamingr/Documents/casio/gcc/lib/gcc/sh3eb-elf/9.3.0/m4-nofpu/libgcc.a(_udivdi3.o) (___udiv_qrnnd_16)
/home/benjamingr/Documents/casio/gcc/lib/gcc/sh3eb-elf/9.3.0/m4-nofpu/libgcc.a(_clz.o)
                              /home/benjamingr/Documents/casio/gcc/lib/gcc/sh3eb-elf/9.3.0/m4-nofpu/libgcc.a(_udivdi3.o) (___clz_tab)

Discarded input sections

 .comment       0x0000000000000000       0x12 build-cg/src/collide.c.o
 .comment       0x0000000000000000       0x12 build-cg/src/drawlevel.c.o
 .comment       0x0000000000000000       0x12 build-cg/src/main.c.o
 .comment       0x0000000000000000       0x12 build-cg/src/setlevel.c.o
 .comment       0x0000000000000000       0x12 /home/benjamingr/Documents/casio/gcc/lib/gcc/sh3eb-elf/9.3.0/libgint-cg.a(memory.c.o)
 .comment       0x0000000000000000       0x12 /home/benjamingr/Documents/casio/gcc/lib/gcc/sh3eb-elf/9.3.0/libgint-cg.a(string.c.o)
 .comment       0x0000000000000000       0x12 /home/benjamingr/Documents/casio/gcc/lib/gcc/sh3eb-elf/9.3.0/libgint-cg.a(dupdate.c.o)
 .comment       0x0000000000000000       0x12 /home/benjamingr/Documents/casio/gcc/lib/gcc/sh3eb-elf/9.3.0/libgint-cg.a(dclear.c.o)
 .comment       0x0000000000000000       0x12 /home/benjamingr/Documents/casio/gcc/lib/gcc/sh3eb-elf/9.3.0/libgint-cg.a(dimage.c.o)
 .comment       0x0000000000000000       0x12 /home/benjamingr/Documents/casio/gcc/lib/gcc/sh3eb-elf/9.3.0/libgint-cg.a(dvram.c.o)
 .comment       0x0000000000000000       0x12 /home/benjamingr/Documents/casio/gcc/lib/gcc/sh3eb-elf/9.3.0/libgint-cg.a(bopti.c.o)
 .comment       0x0000000000000000       0x12 /home/benjamingr/Documents/casio/gcc/lib/gcc/sh3eb-elf/9.3.0/libgint-cg.a(dprint.c.o)
 .comment       0x0000000000000000       0x12 /home/benjamingr/Documents/casio/gcc/lib/gcc/sh3eb-elf/9.3.0/libgint-cg.a(r61524.c.o)
 .comment       0x0000000000000000       0x12 /home/benjamingr/Documents/casio/gcc/lib/gcc/sh3eb-elf/9.3.0/libgint-cg.a(dma.c.o)
 .comment       0x0000000000000000       0x12 /home/benjamingr/Documents/casio/gcc/lib/gcc/sh3eb-elf/9.3.0/libgint-cg.a(memset.c.o)
 .comment       0x0000000000000000       0x12 /home/benjamingr/Documents/casio/gcc/lib/gcc/sh3eb-elf/9.3.0/libgint-cg.a(intc.c.o)
 .comment       0x0000000000000000       0x12 /home/benjamingr/Documents/casio/gcc/lib/gcc/sh3eb-elf/9.3.0/libgint-cg.a(start.c.o)
 .comment       0x0000000000000000       0x12 /home/benjamingr/Documents/casio/gcc/lib/gcc/sh3eb-elf/9.3.0/libgint-cg.a(exch.c.o)
 .comment       0x0000000000000000       0x12 /home/benjamingr/Documents/casio/gcc/lib/gcc/sh3eb-elf/9.3.0/libgint-cg.a(hardware.c.o)
 .comment       0x0000000000000000       0x12 /home/benjamingr/Documents/casio/gcc/lib/gcc/sh3eb-elf/9.3.0/libgint-cg.a(kernel.c.o)
 .comment       0x0000000000000000       0x12 /home/benjamingr/Documents/casio/gcc/lib/gcc/sh3eb-elf/9.3.0/libgint-cg.a(keysc.c.o)
 .comment       0x0000000000000000       0x12 /home/benjamingr/Documents/casio/gcc/lib/gcc/sh3eb-elf/9.3.0/libgint-cg.a(getkey.c.o)
 .comment       0x0000000000000000       0x12 /home/benjamingr/Documents/casio/gcc/lib/gcc/sh3eb-elf/9.3.0/libgint-cg.a(tmu.c.o)
 .comment       0x0000000000000000       0x12 /home/benjamingr/Documents/casio/gcc/lib/gcc/sh3eb-elf/9.3.0/libgint-cg.a(stdio.c.o)
 .comment       0x0000000000000000       0x12 /home/benjamingr/Documents/casio/gcc/lib/gcc/sh3eb-elf/9.3.0/libgint-cg.a(cpg.c.o)
 .comment       0x0000000000000000       0x12 /home/benjamingr/Documents/casio/gcc/lib/gcc/sh3eb-elf/9.3.0/libgint-cg.a(topti.c.o)
 .comment       0x0000000000000000       0x12 /home/benjamingr/Documents/casio/gcc/lib/gcc/sh3eb-elf/9.3.0/libgint-cg.a(topti.c.o)
 .comment       0x0000000000000000       0x12 /home/benjamingr/Documents/casio/gcc/lib/gcc/sh3eb-elf/9.3.0/libgint-cg.a(osmenu.c.o)
 .comment       0x0000000000000000       0x12 /home/benjamingr/Documents/casio/gcc/lib/gcc/sh3eb-elf/9.3.0/libgint-cg.a(drect.c.o)
 .debug_info    0x0000000000000000      0x737 /home/benjamingr/Documents/casio/gcc/lib/gcc/sh3eb-elf/9.3.0/m4-nofpu/libgcc.a(_udivdi3.o)
 .debug_abbrev  0x0000000000000000      0x218 /home/benjamingr/Documents/casio/gcc/lib/gcc/sh3eb-elf/9.3.0/m4-nofpu/libgcc.a(_udivdi3.o)
 .debug_loc     0x0000000000000000      0x6d5 /home/benjamingr/Documents/casio/gcc/lib/gcc/sh3eb-elf/9.3.0/m4-nofpu/libgcc.a(_udivdi3.o)
 .debug_aranges
                0x0000000000000000       0x20 /home/benjamingr/Documents/casio/gcc/lib/gcc/sh3eb-elf/9.3.0/m4-nofpu/libgcc.a(_udivdi3.o)
 .debug_ranges  0x0000000000000000       0xf0 /home/benjamingr/Documents/casio/gcc/lib/gcc/sh3eb-elf/9.3.0/m4-nofpu/libgcc.a(_udivdi3.o)
 .debug_line    0x0000000000000000      0x28f /home/benjamingr/Documents/casio/gcc/lib/gcc/sh3eb-elf/9.3.0/m4-nofpu/libgcc.a(_udivdi3.o)
 .debug_str     0x0000000000000000      0x5aa /home/benjamingr/Documents/casio/gcc/lib/gcc/sh3eb-elf/9.3.0/m4-nofpu/libgcc.a(_udivdi3.o)
 .comment       0x0000000000000000       0x12 /home/benjamingr/Documents/casio/gcc/lib/gcc/sh3eb-elf/9.3.0/m4-nofpu/libgcc.a(_udivdi3.o)
 .eh_frame      0x0000000000000000       0x80 /home/benjamingr/Documents/casio/gcc/lib/gcc/sh3eb-elf/9.3.0/m4-nofpu/libgcc.a(_udivdi3.o)
 .debug_info    0x0000000000000000      0x746 /home/benjamingr/Documents/casio/gcc/lib/gcc/sh3eb-elf/9.3.0/m4-nofpu/libgcc.a(_umoddi3.o)
 .debug_abbrev  0x0000000000000000      0x229 /home/benjamingr/Documents/casio/gcc/lib/gcc/sh3eb-elf/9.3.0/m4-nofpu/libgcc.a(_umoddi3.o)
 .debug_loc     0x0000000000000000      0x6ef /home/benjamingr/Documents/casio/gcc/lib/gcc/sh3eb-elf/9.3.0/m4-nofpu/libgcc.a(_umoddi3.o)
 .debug_aranges
                0x0000000000000000       0x20 /home/benjamingr/Documents/casio/gcc/lib/gcc/sh3eb-elf/9.3.0/m4-nofpu/libgcc.a(_umoddi3.o)
 .debug_ranges  0x0000000000000000      0x108 /home/benjamingr/Documents/casio/gcc/lib/gcc/sh3eb-elf/9.3.0/m4-nofpu/libgcc.a(_umoddi3.o)
 .debug_line    0x0000000000000000      0x2e5 /home/benjamingr/Documents/casio/gcc/lib/gcc/sh3eb-elf/9.3.0/m4-nofpu/libgcc.a(_umoddi3.o)
 .debug_str     0x0000000000000000      0x5aa /home/benjamingr/Documents/casio/gcc/lib/gcc/sh3eb-elf/9.3.0/m4-nofpu/libgcc.a(_umoddi3.o)
 .comment       0x0000000000000000       0x12 /home/benjamingr/Documents/casio/gcc/lib/gcc/sh3eb-elf/9.3.0/m4-nofpu/libgcc.a(_umoddi3.o)
 .eh_frame      0x0000000000000000       0x90 /home/benjamingr/Documents/casio/gcc/lib/gcc/sh3eb-elf/9.3.0/m4-nofpu/libgcc.a(_umoddi3.o)
 .debug_info    0x0000000000000000      0x371 /home/benjamingr/Documents/casio/gcc/lib/gcc/sh3eb-elf/9.3.0/m4-nofpu/libgcc.a(_clz.o)
 .debug_abbrev  0x0000000000000000       0xcf /home/benjamingr/Documents/casio/gcc/lib/gcc/sh3eb-elf/9.3.0/m4-nofpu/libgcc.a(_clz.o)
 .debug_aranges
                0x0000000000000000       0x18 /home/benjamingr/Documents/casio/gcc/lib/gcc/sh3eb-elf/9.3.0/m4-nofpu/libgcc.a(_clz.o)
 .debug_line    0x0000000000000000       0xe2 /home/benjamingr/Documents/casio/gcc/lib/gcc/sh3eb-elf/9.3.0/m4-nofpu/libgcc.a(_clz.o)
 .debug_str     0x0000000000000000      0x527 /home/benjamingr/Documents/casio/gcc/lib/gcc/sh3eb-elf/9.3.0/m4-nofpu/libgcc.a(_clz.o)
 .comment       0x0000000000000000       0x12 /home/benjamingr/Documents/casio/gcc/lib/gcc/sh3eb-elf/9.3.0/m4-nofpu/libgcc.a(_clz.o)

Memory Configuration

Name             Origin             Length             Attributes
rom              0x0000000000300000 0x0000000000200000 xr
ram              0x0000000008101400 0x000000000007ec00 rw
vbr50            0x000000008c160000 0x0000000000001400 xrw
vbr20            0x0000000088160000 0x0000000000001400 xrw
ilram            0x00000000e5200000 0x0000000000001000 xrw
xram             0x00000000e5007000 0x0000000000002000 xrw
yram             0x00000000e5017000 0x0000000000002000 xrw
*default*        0x0000000000000000 0xffffffffffffffff

Linker script and memory map

LOAD build-cg/src/collide.c.o
LOAD build-cg/src/drawlevel.c.o
LOAD build-cg/src/main.c.o
LOAD build-cg/src/setlevel.c.o
LOAD build-cg/assets/img/solid_1.png.o
LOAD build-cg/assets/img/player.png.o
LOAD build-cg/assets/img/solid_0.png.o
LOAD /home/benjamingr/Documents/casio/gcc/lib/gcc/sh3eb-elf/9.3.0/libgint-cg.a
LOAD /home/benjamingr/Documents/casio/gcc/lib/gcc/sh3eb-elf/9.3.0/libgint-cg.a
LOAD /home/benjamingr/Documents/casio/gcc/lib/gcc/sh3eb-elf/9.3.0/m4-nofpu/libgcc.a
                0x0000000000300000                _brom = 0x300000
                0x00000000000053a0                _srom = (((SIZEOF (.text) + SIZEOF (.rodata)) + SIZEOF (.gint.drivers)) + SIZEOF (.gint.blocks))

.text           0x0000000000300000     0x4200
 *(.text.entry)
 .text.entry    0x0000000000300000      0x12c /home/benjamingr/Documents/casio/gcc/lib/gcc/sh3eb-elf/9.3.0/libgint-cg.a(start.c.o)
                0x0000000000300000                _start
                0x000000000030012c                _bctors = .
 *(.ctors .ctors.*)
                0x000000000030012c                _ectors = .
                0x000000000030012c                _bdtors = .
 *(.dtors .dtors.*)
                0x000000000030012c                _edtors = .
                0x000000000030012c                _gint_exch_start = .
 *(.gint.exch)
 *fill*         0x000000000030012c        0x4 
 .gint.exch     0x0000000000300130       0x64 /home/benjamingr/Documents/casio/gcc/lib/gcc/sh3eb-elf/9.3.0/libgint-cg.a(exch.s.o)
                0x0000000000300130                _gint_exch
                0x0000000000000068                _gint_exch_size = ABSOLUTE ((. - _gint_exch_start))
                0x0000000000300194                _gint_tlbh_start = .
 *(.gint.tlbh)
 *fill*         0x0000000000300194        0xc 
 .gint.tlbh     0x00000000003001a0       0x68 /home/benjamingr/Documents/casio/gcc/lib/gcc/sh3eb-elf/9.3.0/libgint-cg.a(tlbh.S.o)
                0x00000000003001a0                _gint_tlbh
                0x0000000000000074                _gint_tlbh_size = ABSOLUTE ((. - _gint_tlbh_start))
 *(.text .text.*)
 .text          0x0000000000300208      0x118 build-cg/src/collide.c.o
                0x0000000000300208                _collide_vert
                0x000000000030029c                _collide_hor
 .text          0x0000000000300320       0x90 build-cg/src/drawlevel.c.o
                0x0000000000300320                _draw_player
                0x0000000000300330                _draw_level
 .text          0x00000000003003b0        0x0 build-cg/src/main.c.o
 .text.startup  0x00000000003003b0      0x25c build-cg/src/main.c.o
                0x00000000003003b0                _main
 .text          0x000000000030060c       0x30 build-cg/src/setlevel.c.o
                0x000000000030060c                _set_level
 .text          0x000000000030063c       0xdc /home/benjamingr/Documents/casio/gcc/lib/gcc/sh3eb-elf/9.3.0/libgint-cg.a(memory.c.o)
                0x000000000030063c                _memcpy
                0x00000000003006f6                __memmove
                0x00000000003006fa                __memcmp
                0x00000000003006fe                _memset
 .text          0x0000000000300718       0x7c /home/benjamingr/Documents/casio/gcc/lib/gcc/sh3eb-elf/9.3.0/libgint-cg.a(string.c.o)
                0x0000000000300718                _strlen
                0x0000000000300728                _strncpy
                0x0000000000300740                _strcat
                0x0000000000300784                _strcmp
 .text          0x0000000000300794       0x3c /home/benjamingr/Documents/casio/gcc/lib/gcc/sh3eb-elf/9.3.0/libgint-cg.a(dupdate.c.o)
                0x0000000000300794                _dupdate
                0x00000000003007b8                _dupdate_noint
 .text          0x00000000003007d0       0x1c /home/benjamingr/Documents/casio/gcc/lib/gcc/sh3eb-elf/9.3.0/libgint-cg.a(dclear.c.o)
                0x00000000003007d0                _dclear
 .text          0x00000000003007ec       0x40 /home/benjamingr/Documents/casio/gcc/lib/gcc/sh3eb-elf/9.3.0/libgint-cg.a(dimage.c.o)
                0x00000000003007ec                _dimage
                0x0000000000300814                _dsubimage
 .text          0x000000000030082c       0x6c /home/benjamingr/Documents/casio/gcc/lib/gcc/sh3eb-elf/9.3.0/libgint-cg.a(dvram.c.o)
                0x000000000030082c                _dsetvram
                0x0000000000300858                _dgetvram
                0x0000000000300878                _dvram_switch
 .text          0x0000000000300898      0x1e4 /home/benjamingr/Documents/casio/gcc/lib/gcc/sh3eb-elf/9.3.0/libgint-cg.a(bopti.c.o)
                0x0000000000300898                _bopti_render
                0x0000000000300988                _bopti_render_clip
                0x0000000000300a50                _bopti_render_noclip
 .text          0x0000000000300a7c       0xbc /home/benjamingr/Documents/casio/gcc/lib/gcc/sh3eb-elf/9.3.0/libgint-cg.a(dprint.c.o)
                0x0000000000300a7c                _dprint_opt
                0x0000000000300ae8                _dprint
 .text          0x0000000000300b38      0x2d4 /home/benjamingr/Documents/casio/gcc/lib/gcc/sh3eb-elf/9.3.0/libgint-cg.a(r61524.c.o)
                0x0000000000300b88                _r61524_win_get
                0x0000000000300c40                _r61524_win_set
                0x0000000000300d00                _r61524_display
 .text          0x0000000000300e0c      0x420 /home/benjamingr/Documents/casio/gcc/lib/gcc/sh3eb-elf/9.3.0/libgint-cg.a(dma.c.o)
                0x00000000003010dc                _dma_transfer
                0x000000000030111c                _dma_transfer_wait
                0x00000000003011c0                _dma_transfer_noint
 .text          0x000000000030122c        0x0 /home/benjamingr/Documents/casio/gcc/lib/gcc/sh3eb-elf/9.3.0/libgint-cg.a(inth.s.o)
 .text          0x000000000030122c       0x4c /home/benjamingr/Documents/casio/gcc/lib/gcc/sh3eb-elf/9.3.0/libgint-cg.a(memset.c.o)
                0x000000000030122c                _dma_memset
 .text          0x0000000000301278       0xf4 /home/benjamingr/Documents/casio/gcc/lib/gcc/sh3eb-elf/9.3.0/libgint-cg.a(intc.c.o)
                0x00000000003012f4                _intc_priority
 .text          0x000000000030136c       0x30 /home/benjamingr/Documents/casio/gcc/lib/gcc/sh3eb-elf/9.3.0/libgint-cg.a(start.c.o)
 .text          0x000000000030139c      0x29c /home/benjamingr/Documents/casio/gcc/lib/gcc/sh3eb-elf/9.3.0/libgint-cg.a(exch.c.o)
                0x0000000000301608                _gint_panic
                0x0000000000301618                _gint_panic_set
                0x000000000030162c                _gint_exc_catch
 .text          0x0000000000301638       0x40 /home/benjamingr/Documents/casio/gcc/lib/gcc/sh3eb-elf/9.3.0/libgint-cg.a(hardware.c.o)
                0x0000000000301638                _hw_detect
 .text          0x0000000000301678      0x2b8 /home/benjamingr/Documents/casio/gcc/lib/gcc/sh3eb-elf/9.3.0/libgint-cg.a(kernel.c.o)
                0x00000000003017f4                _kinit
                0x0000000000301888                _gint_inthandler
                0x00000000003018b8                _gint_switch
                0x0000000000301908                _kquit
 .text          0x0000000000301930        0x0 /home/benjamingr/Documents/casio/gcc/lib/gcc/sh3eb-elf/9.3.0/libgint-cg.a(tlbh.S.o)
 .text          0x0000000000301930      0x424 /home/benjamingr/Documents/casio/gcc/lib/gcc/sh3eb-elf/9.3.0/libgint-cg.a(keysc.c.o)
                0x0000000000301b08                _pollevent
                0x0000000000301c44                _waitevent
                0x0000000000301c90                _clearevents
                0x0000000000301cb0                _keydown
                0x0000000000301cdc                _keydown_all
                0x0000000000301d18                _keydown_any
 .text          0x0000000000301d54      0x1f8 /home/benjamingr/Documents/casio/gcc/lib/gcc/sh3eb-elf/9.3.0/libgint-cg.a(getkey.c.o)
                0x0000000000301d54                _getkey_opt
                0x0000000000301f04                _getkey
                0x0000000000301f10                _getkey_repeat
 .text          0x0000000000301f4c      0x69c /home/benjamingr/Documents/casio/gcc/lib/gcc/sh3eb-elf/9.3.0/libgint-cg.a(tmu.c.o)
                0x0000000000302218                _timer_delay
                0x00000000003022c4                _timer_setup
                0x00000000003024c4                _timer_start
                0x00000000003024fc                _timer_reload
                0x0000000000302534                _timer_pause
                0x0000000000302570                _timer_wait
                0x00000000003025d8                _timer_timeout
 .text          0x00000000003025e8        0x0 /home/benjamingr/Documents/casio/gcc/lib/gcc/sh3eb-elf/9.3.0/libgint-cg.a(inth.s.o)
 .text          0x00000000003025e8      0xcec /home/benjamingr/Documents/casio/gcc/lib/gcc/sh3eb-elf/9.3.0/libgint-cg.a(stdio.c.o)
                0x0000000000302fe4                _kprint_opt
                0x000000000030312c                _kprint
                0x000000000030320c                _kvsprint
                0x0000000000303254                _sprintf
                0x000000000030327c                _vsprintf
                0x000000000030329c                _snprintf
                0x00000000003032bc                _vsnprintf
 .text          0x00000000003032d4       0xb8 /home/benjamingr/Documents/casio/gcc/lib/gcc/sh3eb-elf/9.3.0/libgint-cg.a(cpg.c.o)
                0x0000000000303380                _clock_freq
 *fill*         0x000000000030338c        0x4 
 .text          0x0000000000303390      0x100 /home/benjamingr/Documents/casio/gcc/lib/gcc/sh3eb-elf/9.3.0/libgint-cg.a(bopti-asm.s.o)
                0x0000000000303390                _bopti_r5g6b5
                0x00000000003033e0                _bopti_r5g6b5a
                0x0000000000303410                _bopti_p8
                0x0000000000303440                _bopti_p4
 .text          0x0000000000303490      0x2b4 /home/benjamingr/Documents/casio/gcc/lib/gcc/sh3eb-elf/9.3.0/libgint-cg.a(topti.c.o)
                0x0000000000303490                _topti_render
                0x0000000000303680                _dtext_opt
                0x0000000000303724                _dtext
 .text          0x0000000000303744      0x1ac /home/benjamingr/Documents/casio/gcc/lib/gcc/sh3eb-elf/9.3.0/libgint-cg.a(topti.c.o)
                0x0000000000303744                _dfont
                0x000000000030375c                _charset_size
                0x0000000000303788                _charset_decode
                0x00000000003037f6                _topti_offset
                0x0000000000303854                _dsize
 .text          0x00000000003038f0       0x30 /home/benjamingr/Documents/casio/gcc/lib/gcc/sh3eb-elf/9.3.0/libgint-cg.a(cpu.s.o)
                0x00000000003038f0                _cpu_setCPUOPM
                0x0000000000303902                _cpu_getCPUOPM
 .text          0x0000000000303920        0x0 /home/benjamingr/Documents/casio/gcc/lib/gcc/sh3eb-elf/9.3.0/libgint-cg.a(exch.s.o)
 .text          0x0000000000303920       0xfc /home/benjamingr/Documents/casio/gcc/lib/gcc/sh3eb-elf/9.3.0/libgint-cg.a(osmenu.c.o)
                0x0000000000303a0c                _gint_osmenu
 *fill*         0x0000000000303a1c        0x4 
 .text          0x0000000000303a20      0x190 /home/benjamingr/Documents/casio/gcc/lib/gcc/sh3eb-elf/9.3.0/libgint-cg.a(syscalls.S.o)
                0x0000000000303a20                _malloc
                0x0000000000303a34                _free
                0x0000000000303a44                _calloc
                0x0000000000303a54                _realloc
                0x0000000000303a64                _BFile_Remove
                0x0000000000303a74                _BFile_Create
                0x0000000000303a84                _BFile_Open
                0x0000000000303a94                _BFile_Close
                0x0000000000303aa4                _BFile_Size
                0x0000000000303ab4                _BFile_Write
                0x0000000000303ac4                _BFile_Read
                0x0000000000303ad4                _BFile_FindFirst
                0x0000000000303ae4                _BFile_FindNext
                0x0000000000303af4                _BFile_FindClose
                0x0000000000303b04                ___Timer_Install
                0x0000000000303b14                ___Timer_Start
                0x0000000000303b24                ___Timer_Stop
                0x0000000000303b34                ___Timer_Deinstall
                0x0000000000303b44                ___PutKeyCode
                0x0000000000303b54                ___GetKeyWait
                0x0000000000303b64                ___ClearKeyBuffer
                0x0000000000303b74                ___GetVRAMAddress
                0x0000000000303b84                ___ConfigureStatusArea
                0x0000000000303b94                ___SpecialMatrixCodeProcessing
 .text          0x0000000000303bb0        0x0 /home/benjamingr/Documents/casio/gcc/lib/gcc/sh3eb-elf/9.3.0/libgint-cg.a(inth.S.o)
 .text          0x0000000000303bb0       0xc0 /home/benjamingr/Documents/casio/gcc/lib/gcc/sh3eb-elf/9.3.0/libgint-cg.a(drect.c.o)
                0x0000000000303bb0                _drect
 .text          0x0000000000303c70       0xd0 /home/benjamingr/Documents/casio/gcc/lib/gcc/sh3eb-elf/9.3.0/libgint-cg.a(topti-asm.s.o)
                0x0000000000303c70                _topti_glyph_fg_bg
                0x0000000000303cae                _topti_glyph_fg
                0x0000000000303ce8                _topti_glyph_bg
 .text          0x0000000000303d40       0x78 /home/benjamingr/Documents/casio/gcc/lib/gcc/sh3eb-elf/9.3.0/m4-nofpu/libgcc.a(_movmem.o)
                0x0000000000303d40                ___movstr
                0x0000000000303d40                ___movmem
                0x0000000000303d74                ___movmemSI64
                0x0000000000303d74                ___movstrSI64
                0x0000000000303d78                ___movstrSI60
                0x0000000000303d78                ___movmemSI60
                0x0000000000303d7c                ___movmemSI56
                0x0000000000303d7c                ___movstrSI56
                0x0000000000303d80                ___movstrSI52
                0x0000000000303d80                ___movmemSI52
                0x0000000000303d84                ___movstrSI48
                0x0000000000303d84                ___movmemSI48
                0x0000000000303d88                ___movstrSI44
                0x0000000000303d88                ___movmemSI44
                0x0000000000303d8c                ___movstrSI40
                0x0000000000303d8c                ___movmemSI40
                0x0000000000303d90                ___movstrSI36
                0x0000000000303d90                ___movmemSI36
                0x0000000000303d94                ___movmemSI32
                0x0000000000303d94                ___movstrSI32
                0x0000000000303d98                ___movmemSI28
                0x0000000000303d98                ___movstrSI28
                0x0000000000303d9c                ___movstrSI24
                0x0000000000303d9c                ___movmemSI24
                0x0000000000303da0                ___movmemSI20
                0x0000000000303da0                ___movstrSI20
                0x0000000000303da4                ___movstrSI16
                0x0000000000303da4                ___movmemSI16
                0x0000000000303da8                ___movmemSI12
                0x0000000000303da8                ___movstrSI12
                0x0000000000303dac                ___movmemSI8
                0x0000000000303dac                ___movstrSI8
                0x0000000000303db0                ___movmemSI4
                0x0000000000303db0                ___movstrSI4
 .text          0x0000000000303db8      0x1e0 /home/benjamingr/Documents/casio/gcc/lib/gcc/sh3eb-elf/9.3.0/m4-nofpu/libgcc.a(_udivdi3.o)
                0x0000000000303db8                ___udivdi3
 .text          0x0000000000303f98      0x208 /home/benjamingr/Documents/casio/gcc/lib/gcc/sh3eb-elf/9.3.0/m4-nofpu/libgcc.a(_umoddi3.o)
                0x0000000000303f98                ___umoddi3
 .text          0x00000000003041a0       0x60 /home/benjamingr/Documents/casio/gcc/lib/gcc/sh3eb-elf/9.3.0/m4-nofpu/libgcc.a(_udiv_qrnnd_16.o)
                0x00000000003041a0                ___udiv_qrnnd_16
 .text          0x0000000000304200        0x0 /home/benjamingr/Documents/casio/gcc/lib/gcc/sh3eb-elf/9.3.0/m4-nofpu/libgcc.a(_clz.o)

.gint.blocks    0x0000000000304200      0x160
 *(.gint.blocks)
 .gint.blocks   0x0000000000304200       0x40 /home/benjamingr/Documents/casio/gcc/lib/gcc/sh3eb-elf/9.3.0/libgint-cg.a(inth.s.o)
                0x0000000000304200                _inth_dma_te
                0x0000000000304220                _inth_dma_ae
 .gint.blocks   0x0000000000304240       0xe0 /home/benjamingr/Documents/casio/gcc/lib/gcc/sh3eb-elf/9.3.0/libgint-cg.a(inth.s.o)
                0x0000000000304240                _inth_tmu
                0x00000000003042c0                _inth_etmu2
                0x00000000003042e0                _inth_etmu_help
                0x0000000000304300                _inth_etmux
 .gint.blocks   0x0000000000304320       0x40 /home/benjamingr/Documents/casio/gcc/lib/gcc/sh3eb-elf/9.3.0/libgint-cg.a(inth.S.o)
                0x0000000000304320                _gint_inth_7305

.gint.drivers   0x0000000000304360       0xc0
                0x0000000000304360                _bdrv = .
 *(.gint.drivers.0)
 .gint.drivers.0
                0x0000000000304360       0x20 /home/benjamingr/Documents/casio/gcc/lib/gcc/sh3eb-elf/9.3.0/libgint-cg.a(intc.c.o)
                0x0000000000304360                _drv_intc
 *(.gint.drivers.1)
 .gint.drivers.1
                0x0000000000304380       0x20 /home/benjamingr/Documents/casio/gcc/lib/gcc/sh3eb-elf/9.3.0/libgint-cg.a(cpg.c.o)
                0x0000000000304380                _drv_cpg
 *(.gint.drivers.2)
 .gint.drivers.2
                0x00000000003043a0       0x20 /home/benjamingr/Documents/casio/gcc/lib/gcc/sh3eb-elf/9.3.0/libgint-cg.a(dma.c.o)
                0x00000000003043a0                _drv_dma0
 .gint.drivers.2
                0x00000000003043c0       0x20 /home/benjamingr/Documents/casio/gcc/lib/gcc/sh3eb-elf/9.3.0/libgint-cg.a(tmu.c.o)
                0x00000000003043c0                _drv_tmu
 *(.gint.drivers.3)
 *(.gint.drivers.4)
 .gint.drivers.4
                0x00000000003043e0       0x20 /home/benjamingr/Documents/casio/gcc/lib/gcc/sh3eb-elf/9.3.0/libgint-cg.a(keysc.c.o)
                0x00000000003043e0                _drv_keysc
 *(.gint.drivers.5)
 .gint.drivers.5
                0x0000000000304400       0x20 /home/benjamingr/Documents/casio/gcc/lib/gcc/sh3eb-elf/9.3.0/libgint-cg.a(r61524.c.o)
                0x0000000000304400                _drv_r61524
 *(.gint.drivers.6)
                0x0000000000304420                _edrv = .

.rodata         0x0000000000304420      0xf80
 *(.rodata.4)
 *(.rodata .rodata.*)
 .rodata.str1.4
                0x0000000000304420        0x7 build-cg/src/main.c.o
 *fill*         0x0000000000304427        0x1 
 .rodata.str1.4
                0x0000000000304428      0x16a build-cg/src/setlevel.c.o
 *fill*         0x0000000000304592        0x2 
 .rodata        0x0000000000304594      0x208 build-cg/assets/img/solid_1.png.o
                0x0000000000304594                _img_solid_1
                0x000000000030479c                _img_solid_1_end
 .rodata        0x000000000030479c      0x128 build-cg/assets/img/player.png.o
                0x000000000030479c                _img_player
                0x00000000003048c4                _img_player_end
 .rodata        0x00000000003048c4      0x208 build-cg/assets/img/solid_0.png.o
                0x00000000003048c4                _img_solid_0
                0x0000000000304acc                _img_solid_0_end
 .rodata.str1.4
                0x0000000000304acc        0x7 /home/benjamingr/Documents/casio/gcc/lib/gcc/sh3eb-elf/9.3.0/libgint-cg.a(r61524.c.o)
 *fill*         0x0000000000304ad3        0x1 
 .rodata        0x0000000000304ad4       0x30 /home/benjamingr/Documents/casio/gcc/lib/gcc/sh3eb-elf/9.3.0/libgint-cg.a(dma.c.o)
 .rodata.str1.4
                0x0000000000304b04        0x5 /home/benjamingr/Documents/casio/gcc/lib/gcc/sh3eb-elf/9.3.0/libgint-cg.a(dma.c.o)
 *fill*         0x0000000000304b09        0x3 
 .rodata.str1.4
                0x0000000000304b0c        0x5 /home/benjamingr/Documents/casio/gcc/lib/gcc/sh3eb-elf/9.3.0/libgint-cg.a(intc.c.o)
 *fill*         0x0000000000304b11        0x3 
 .rodata.str1.4
                0x0000000000304b14      0x288 /home/benjamingr/Documents/casio/gcc/lib/gcc/sh3eb-elf/9.3.0/libgint-cg.a(exch.c.o)
                                        0x28c (size before relaxing)
 .rodata.str1.4
                0x0000000000304d9c        0x6 /home/benjamingr/Documents/casio/gcc/lib/gcc/sh3eb-elf/9.3.0/libgint-cg.a(keysc.c.o)
 *fill*         0x0000000000304da2        0x2 
 .rodata        0x0000000000304da4        0xc /home/benjamingr/Documents/casio/gcc/lib/gcc/sh3eb-elf/9.3.0/libgint-cg.a(tmu.c.o)
 .rodata.str1.4
                0x0000000000304db0        0x4 /home/benjamingr/Documents/casio/gcc/lib/gcc/sh3eb-elf/9.3.0/libgint-cg.a(tmu.c.o)
 .rodata.str1.4
                0x0000000000304db4       0x31 /home/benjamingr/Documents/casio/gcc/lib/gcc/sh3eb-elf/9.3.0/libgint-cg.a(stdio.c.o)
 *fill*         0x0000000000304de5        0x3 
 .rodata.str1.4
                0x0000000000304de8        0x4 /home/benjamingr/Documents/casio/gcc/lib/gcc/sh3eb-elf/9.3.0/libgint-cg.a(cpg.c.o)
 .rodata        0x0000000000304dec       0x18 /home/benjamingr/Documents/casio/gcc/lib/gcc/sh3eb-elf/9.3.0/libgint-cg.a(topti.c.o)
 .rodata        0x0000000000304e04      0x49c /home/benjamingr/Documents/casio/gcc/lib/gcc/sh3eb-elf/9.3.0/libgint-cg.a(font8x9.png.o)
                0x0000000000304e04                _gint_font8x9
                0x00000000003052a0                _gint_font8x9_end
 .rodata        0x00000000003052a0      0x100 /home/benjamingr/Documents/casio/gcc/lib/gcc/sh3eb-elf/9.3.0/m4-nofpu/libgcc.a(_clz.o)
                0x00000000003052a0                ___clz_tab

.rela.dyn       0x00000000003053a0        0x0
 .rela.text     0x00000000003053a0        0x0 build-cg/src/drawlevel.c.o
 .rela.text.entry
                0x00000000003053a0        0x0 build-cg/src/drawlevel.c.o
                0x0000000008101400                . = ORIGIN (ram)

.bss            0x0000000008101400      0x150
                0x0000000008101400                _rbss = .
 *(.bss COMMON)
 .bss           0x0000000008101400        0x0 build-cg/src/collide.c.o
 .bss           0x0000000008101400        0x0 build-cg/src/drawlevel.c.o
 .bss           0x0000000008101400        0x0 build-cg/src/main.c.o
 .bss           0x0000000008101400        0x0 build-cg/src/setlevel.c.o
 .bss           0x0000000008101400        0x0 /home/benjamingr/Documents/casio/gcc/lib/gcc/sh3eb-elf/9.3.0/libgint-cg.a(memory.c.o)
 .bss           0x0000000008101400        0x0 /home/benjamingr/Documents/casio/gcc/lib/gcc/sh3eb-elf/9.3.0/libgint-cg.a(string.c.o)
 .bss           0x0000000008101400        0x0 /home/benjamingr/Documents/casio/gcc/lib/gcc/sh3eb-elf/9.3.0/libgint-cg.a(dupdate.c.o)
 .bss           0x0000000008101400        0x0 /home/benjamingr/Documents/casio/gcc/lib/gcc/sh3eb-elf/9.3.0/libgint-cg.a(dclear.c.o)
 .bss           0x0000000008101400        0x0 /home/benjamingr/Documents/casio/gcc/lib/gcc/sh3eb-elf/9.3.0/libgint-cg.a(dimage.c.o)
 .bss           0x0000000008101400        0x0 /home/benjamingr/Documents/casio/gcc/lib/gcc/sh3eb-elf/9.3.0/libgint-cg.a(dvram.c.o)
 .bss           0x0000000008101400        0x0 /home/benjamingr/Documents/casio/gcc/lib/gcc/sh3eb-elf/9.3.0/libgint-cg.a(bopti.c.o)
 .bss           0x0000000008101400        0x0 /home/benjamingr/Documents/casio/gcc/lib/gcc/sh3eb-elf/9.3.0/libgint-cg.a(dprint.c.o)
 .bss           0x0000000008101400        0x0 /home/benjamingr/Documents/casio/gcc/lib/gcc/sh3eb-elf/9.3.0/libgint-cg.a(r61524.c.o)
 .bss           0x0000000008101400        0x0 /home/benjamingr/Documents/casio/gcc/lib/gcc/sh3eb-elf/9.3.0/libgint-cg.a(dma.c.o)
 .bss           0x0000000008101400        0x0 /home/benjamingr/Documents/casio/gcc/lib/gcc/sh3eb-elf/9.3.0/libgint-cg.a(inth.s.o)
 .bss           0x0000000008101400        0x0 /home/benjamingr/Documents/casio/gcc/lib/gcc/sh3eb-elf/9.3.0/libgint-cg.a(memset.c.o)
 .bss           0x0000000008101400        0x0 /home/benjamingr/Documents/casio/gcc/lib/gcc/sh3eb-elf/9.3.0/libgint-cg.a(intc.c.o)
 .bss           0x0000000008101400        0x0 /home/benjamingr/Documents/casio/gcc/lib/gcc/sh3eb-elf/9.3.0/libgint-cg.a(start.c.o)
 .bss           0x0000000008101400        0x0 /home/benjamingr/Documents/casio/gcc/lib/gcc/sh3eb-elf/9.3.0/libgint-cg.a(exch.c.o)
 .bss           0x0000000008101400        0x0 /home/benjamingr/Documents/casio/gcc/lib/gcc/sh3eb-elf/9.3.0/libgint-cg.a(hardware.c.o)
 .bss           0x0000000008101400        0x0 /home/benjamingr/Documents/casio/gcc/lib/gcc/sh3eb-elf/9.3.0/libgint-cg.a(kernel.c.o)
 .bss           0x0000000008101400        0x0 /home/benjamingr/Documents/casio/gcc/lib/gcc/sh3eb-elf/9.3.0/libgint-cg.a(tlbh.S.o)
 .bss           0x0000000008101400       0x24 /home/benjamingr/Documents/casio/gcc/lib/gcc/sh3eb-elf/9.3.0/libgint-cg.a(keysc.c.o)
 .bss           0x0000000008101424        0xc /home/benjamingr/Documents/casio/gcc/lib/gcc/sh3eb-elf/9.3.0/libgint-cg.a(getkey.c.o)
 .bss           0x0000000008101430        0x0 /home/benjamingr/Documents/casio/gcc/lib/gcc/sh3eb-elf/9.3.0/libgint-cg.a(tmu.c.o)
 .bss           0x0000000008101430        0x0 /home/benjamingr/Documents/casio/gcc/lib/gcc/sh3eb-elf/9.3.0/libgint-cg.a(inth.s.o)
 .bss           0x0000000008101430      0x114 /home/benjamingr/Documents/casio/gcc/lib/gcc/sh3eb-elf/9.3.0/libgint-cg.a(stdio.c.o)
 .bss           0x0000000008101544        0x0 /home/benjamingr/Documents/casio/gcc/lib/gcc/sh3eb-elf/9.3.0/libgint-cg.a(cpg.c.o)
 .bss           0x0000000008101544        0x0 /home/benjamingr/Documents/casio/gcc/lib/gcc/sh3eb-elf/9.3.0/libgint-cg.a(bopti-asm.s.o)
 .bss           0x0000000008101544        0x0 /home/benjamingr/Documents/casio/gcc/lib/gcc/sh3eb-elf/9.3.0/libgint-cg.a(topti.c.o)
 .bss           0x0000000008101544        0x0 /home/benjamingr/Documents/casio/gcc/lib/gcc/sh3eb-elf/9.3.0/libgint-cg.a(topti.c.o)
 .bss           0x0000000008101544        0x0 /home/benjamingr/Documents/casio/gcc/lib/gcc/sh3eb-elf/9.3.0/libgint-cg.a(cpu.s.o)
 .bss           0x0000000008101544        0x0 /home/benjamingr/Documents/casio/gcc/lib/gcc/sh3eb-elf/9.3.0/libgint-cg.a(exch.s.o)
 .bss           0x0000000008101544        0x4 /home/benjamingr/Documents/casio/gcc/lib/gcc/sh3eb-elf/9.3.0/libgint-cg.a(osmenu.c.o)
 .bss           0x0000000008101548        0x0 /home/benjamingr/Documents/casio/gcc/lib/gcc/sh3eb-elf/9.3.0/libgint-cg.a(syscalls.S.o)
 .bss           0x0000000008101548        0x0 /home/benjamingr/Documents/casio/gcc/lib/gcc/sh3eb-elf/9.3.0/libgint-cg.a(inth.S.o)
 .bss           0x0000000008101548        0x0 /home/benjamingr/Documents/casio/gcc/lib/gcc/sh3eb-elf/9.3.0/libgint-cg.a(drect.c.o)
 .bss           0x0000000008101548        0x0 /home/benjamingr/Documents/casio/gcc/lib/gcc/sh3eb-elf/9.3.0/libgint-cg.a(topti-asm.s.o)
 .bss           0x0000000008101548        0x0 /home/benjamingr/Documents/casio/gcc/lib/gcc/sh3eb-elf/9.3.0/m4-nofpu/libgcc.a(_movmem.o)
 .bss           0x0000000008101548        0x0 /home/benjamingr/Documents/casio/gcc/lib/gcc/sh3eb-elf/9.3.0/m4-nofpu/libgcc.a(_udivdi3.o)
 .bss           0x0000000008101548        0x0 /home/benjamingr/Documents/casio/gcc/lib/gcc/sh3eb-elf/9.3.0/m4-nofpu/libgcc.a(_umoddi3.o)
 .bss           0x0000000008101548        0x0 /home/benjamingr/Documents/casio/gcc/lib/gcc/sh3eb-elf/9.3.0/m4-nofpu/libgcc.a(_udiv_qrnnd_16.o)
 .bss           0x0000000008101548        0x0 /home/benjamingr/Documents/casio/gcc/lib/gcc/sh3eb-elf/9.3.0/m4-nofpu/libgcc.a(_clz.o)
                0x0000000008101550                . = ALIGN (0x10)
 *fill*         0x0000000008101548        0x8 
                0x0000000000000150                _sbss = SIZEOF (.bss)

.data           0x0000000008101550      0x170 load address 0x00000000003053a0
                0x00000000003053a0                _ldata = LOADADDR (.data)
                0x0000000008101550                _rdata = .
 *(.data .data.*)
 .data          0x0000000008101550        0x0 build-cg/src/collide.c.o
 .data          0x0000000008101550        0x0 build-cg/src/drawlevel.c.o
 .data          0x0000000008101550        0x0 build-cg/src/main.c.o
 .data          0x0000000008101550        0x0 build-cg/src/setlevel.c.o
 .data          0x0000000008101550        0x0 /home/benjamingr/Documents/casio/gcc/lib/gcc/sh3eb-elf/9.3.0/libgint-cg.a(memory.c.o)
 .data          0x0000000008101550        0x0 /home/benjamingr/Documents/casio/gcc/lib/gcc/sh3eb-elf/9.3.0/libgint-cg.a(string.c.o)
 .data          0x0000000008101550        0x0 /home/benjamingr/Documents/casio/gcc/lib/gcc/sh3eb-elf/9.3.0/libgint-cg.a(dupdate.c.o)
 .data          0x0000000008101550        0x0 /home/benjamingr/Documents/casio/gcc/lib/gcc/sh3eb-elf/9.3.0/libgint-cg.a(dclear.c.o)
 .data          0x0000000008101550        0x0 /home/benjamingr/Documents/casio/gcc/lib/gcc/sh3eb-elf/9.3.0/libgint-cg.a(dimage.c.o)
 .data          0x0000000008101550        0xc /home/benjamingr/Documents/casio/gcc/lib/gcc/sh3eb-elf/9.3.0/libgint-cg.a(dvram.c.o)
                0x0000000008101550                _gint_vram
 .data          0x000000000810155c        0x0 /home/benjamingr/Documents/casio/gcc/lib/gcc/sh3eb-elf/9.3.0/libgint-cg.a(bopti.c.o)
 .data          0x000000000810155c        0x0 /home/benjamingr/Documents/casio/gcc/lib/gcc/sh3eb-elf/9.3.0/libgint-cg.a(dprint.c.o)
 .data          0x000000000810155c        0x0 /home/benjamingr/Documents/casio/gcc/lib/gcc/sh3eb-elf/9.3.0/libgint-cg.a(r61524.c.o)
 .data          0x000000000810155c        0x0 /home/benjamingr/Documents/casio/gcc/lib/gcc/sh3eb-elf/9.3.0/libgint-cg.a(dma.c.o)
 .data          0x000000000810155c        0x0 /home/benjamingr/Documents/casio/gcc/lib/gcc/sh3eb-elf/9.3.0/libgint-cg.a(inth.s.o)
 .data          0x000000000810155c        0x0 /home/benjamingr/Documents/casio/gcc/lib/gcc/sh3eb-elf/9.3.0/libgint-cg.a(memset.c.o)
 .data          0x000000000810155c       0xe4 /home/benjamingr/Documents/casio/gcc/lib/gcc/sh3eb-elf/9.3.0/libgint-cg.a(intc.c.o)
                0x000000000810155c                _info
 .data          0x0000000008101640        0x0 /home/benjamingr/Documents/casio/gcc/lib/gcc/sh3eb-elf/9.3.0/libgint-cg.a(start.c.o)
 .data          0x0000000008101640        0x0 /home/benjamingr/Documents/casio/gcc/lib/gcc/sh3eb-elf/9.3.0/libgint-cg.a(exch.c.o)
 .data          0x0000000008101640        0x0 /home/benjamingr/Documents/casio/gcc/lib/gcc/sh3eb-elf/9.3.0/libgint-cg.a(hardware.c.o)
 .data          0x0000000008101640        0x0 /home/benjamingr/Documents/casio/gcc/lib/gcc/sh3eb-elf/9.3.0/libgint-cg.a(kernel.c.o)
 .data          0x0000000008101640        0x0 /home/benjamingr/Documents/casio/gcc/lib/gcc/sh3eb-elf/9.3.0/libgint-cg.a(tlbh.S.o)
 .data          0x0000000008101640        0x0 /home/benjamingr/Documents/casio/gcc/lib/gcc/sh3eb-elf/9.3.0/libgint-cg.a(keysc.c.o)
 .data          0x0000000008101640        0x8 /home/benjamingr/Documents/casio/gcc/lib/gcc/sh3eb-elf/9.3.0/libgint-cg.a(getkey.c.o)
 .data          0x0000000008101648        0x0 /home/benjamingr/Documents/casio/gcc/lib/gcc/sh3eb-elf/9.3.0/libgint-cg.a(tmu.c.o)
 .data          0x0000000008101648        0x0 /home/benjamingr/Documents/casio/gcc/lib/gcc/sh3eb-elf/9.3.0/libgint-cg.a(inth.s.o)
 .data          0x0000000008101648       0x68 /home/benjamingr/Documents/casio/gcc/lib/gcc/sh3eb-elf/9.3.0/libgint-cg.a(stdio.c.o)
                0x0000000008101648                _kprint_formatters
 .data          0x00000000081016b0        0x0 /home/benjamingr/Documents/casio/gcc/lib/gcc/sh3eb-elf/9.3.0/libgint-cg.a(cpg.c.o)
 .data          0x00000000081016b0        0x0 /home/benjamingr/Documents/casio/gcc/lib/gcc/sh3eb-elf/9.3.0/libgint-cg.a(bopti-asm.s.o)
 .data          0x00000000081016b0        0x8 /home/benjamingr/Documents/casio/gcc/lib/gcc/sh3eb-elf/9.3.0/libgint-cg.a(topti.c.o)
                0x00000000081016b0                _topti_font
                0x00000000081016b4                _gint_default_font
 .data          0x00000000081016b8        0x0 /home/benjamingr/Documents/casio/gcc/lib/gcc/sh3eb-elf/9.3.0/libgint-cg.a(topti.c.o)
 .data          0x00000000081016b8        0x0 /home/benjamingr/Documents/casio/gcc/lib/gcc/sh3eb-elf/9.3.0/libgint-cg.a(cpu.s.o)
 .data          0x00000000081016b8        0x0 /home/benjamingr/Documents/casio/gcc/lib/gcc/sh3eb-elf/9.3.0/libgint-cg.a(exch.s.o)
 .data          0x00000000081016b8        0x0 /home/benjamingr/Documents/casio/gcc/lib/gcc/sh3eb-elf/9.3.0/libgint-cg.a(osmenu.c.o)
 .data          0x00000000081016b8        0x0 /home/benjamingr/Documents/casio/gcc/lib/gcc/sh3eb-elf/9.3.0/libgint-cg.a(syscalls.S.o)
 .data          0x00000000081016b8        0x0 /home/benjamingr/Documents/casio/gcc/lib/gcc/sh3eb-elf/9.3.0/libgint-cg.a(inth.S.o)
 .data          0x00000000081016b8        0x0 /home/benjamingr/Documents/casio/gcc/lib/gcc/sh3eb-elf/9.3.0/libgint-cg.a(drect.c.o)
 .data          0x00000000081016b8        0x0 /home/benjamingr/Documents/casio/gcc/lib/gcc/sh3eb-elf/9.3.0/libgint-cg.a(topti-asm.s.o)
 .data          0x00000000081016b8        0x0 /home/benjamingr/Documents/casio/gcc/lib/gcc/sh3eb-elf/9.3.0/m4-nofpu/libgcc.a(_movmem.o)
 .data          0x00000000081016b8        0x0 /home/benjamingr/Documents/casio/gcc/lib/gcc/sh3eb-elf/9.3.0/m4-nofpu/libgcc.a(_udivdi3.o)
 .data          0x00000000081016b8        0x0 /home/benjamingr/Documents/casio/gcc/lib/gcc/sh3eb-elf/9.3.0/m4-nofpu/libgcc.a(_umoddi3.o)
 .data          0x00000000081016b8        0x0 /home/benjamingr/Documents/casio/gcc/lib/gcc/sh3eb-elf/9.3.0/m4-nofpu/libgcc.a(_udiv_qrnnd_16.o)
 .data          0x00000000081016b8        0x0 /home/benjamingr/Documents/casio/gcc/lib/gcc/sh3eb-elf/9.3.0/m4-nofpu/libgcc.a(_clz.o)
                0x00000000081016c0                . = ALIGN (0x10)
 *fill*         0x00000000081016b8        0x8 

.data.4         0x00000000081016c0        0x0 load address 0x0000000000305510
 *(.data.4)
                0x00000000081016c0                . = ALIGN (0x10)
                0x0000000000000170                _sdata = (SIZEOF (.data) + SIZEOF (.data.4))
                0x00000000e5200000                . = ORIGIN (ilram)

.ilram          0x00000000e5200000      0x160 load address 0x0000000000305510
                0x0000000000305510                _lilram = LOADADDR (.ilram)
                0x00000000e5200000                _rilram = .
 *(.ilram)
 .ilram         0x00000000e5200000       0x20 /home/benjamingr/Documents/casio/gcc/lib/gcc/sh3eb-elf/9.3.0/libgint-cg.a(memset.c.o)
 *(.gint.mapped)
 .gint.mapped   0x00000000e5200020        0xc /home/benjamingr/Documents/casio/gcc/lib/gcc/sh3eb-elf/9.3.0/libgint-cg.a(exch.c.o)
                0x00000000e5200020                _gint_exc_skip
 .gint.mapped   0x00000000e520002c       0xa4 /home/benjamingr/Documents/casio/gcc/lib/gcc/sh3eb-elf/9.3.0/libgint-cg.a(tmu.c.o)
                0x00000000e520002c                _timer_stop
                0x00000000e52000a8                _timer_clear
 .gint.mapped   0x00000000e52000d0       0x24 /home/benjamingr/Documents/casio/gcc/lib/gcc/sh3eb-elf/9.3.0/libgint-cg.a(cpu.s.o)
                0x00000000e52000d0                _cpu_setVBR
 *fill*         0x00000000e52000f4        0xc 
 .gint.mapped   0x00000000e5200100       0x54 /home/benjamingr/Documents/casio/gcc/lib/gcc/sh3eb-elf/9.3.0/libgint-cg.a(inth.S.o)
                0x00000000e5200100                _gint_inth_callback
                0x00000000e5200160                . = ALIGN (0x10)
 *fill*         0x00000000e5200154        0xc 
                0x00000000e5007000                . = ORIGIN (xram)

.xram           0x00000000e5007000        0x0 load address 0x0000000000305670
                0x0000000000305670                _lxram = LOADADDR (.xram)
                0x00000000e5007000                _rxram = .
 *(.xram)
                0x00000000e5007000                . = ALIGN (0x10)
                0x00000000e5017000                . = ORIGIN (yram)

.yram           0x00000000e5017000        0x0 load address 0x0000000000305670
                0x0000000000305670                _lyram = LOADADDR (.yram)
                0x00000000e5017000                _ryram = .
 *(.yram)
                0x00000000e5017000                . = ALIGN (0x10)
                0x0000000000000160                _silram = SIZEOF (.ilram)
                0x0000000000000000                _sxram = SIZEOF (.xram)
                0x0000000000000000                _syram = SIZEOF (.yram)
                0x000000008c15ff00                _gint_vbr_fxcg50 = (ORIGIN (vbr50) - 0x100)
                0x000000008815ff00                _gint_vbr_fxcg20 = (ORIGIN (vbr20) - 0x100)
                0x00000000081016c0                . = ((ORIGIN (ram) + _sbss) + _sdata)

.gint.data      0x00000000081016c0       0xa0 load address 0x0000000000305670
                0x0000000000305670                _lgdata = LOADADDR (.gint.data)
                0x00000000081016c0                _rgdata = .
 *(.gint.data .gint.data.*)
 .gint.data     0x00000000081016c0        0x8 /home/benjamingr/Documents/casio/gcc/lib/gcc/sh3eb-elf/9.3.0/libgint-cg.a(r61524.c.o)
 .gint.data     0x00000000081016c8       0x10 /home/benjamingr/Documents/casio/gcc/lib/gcc/sh3eb-elf/9.3.0/libgint-cg.a(intc.c.o)
                0x00000000081016c8                _SH7305_INTC
 .gint.data.sh3
                0x00000000081016d8       0x24 /home/benjamingr/Documents/casio/gcc/lib/gcc/sh3eb-elf/9.3.0/libgint-cg.a(intc.c.o)
                0x00000000081016d8                _SH7705_INTC
 .gint.data     0x00000000081016fc        0x8 /home/benjamingr/Documents/casio/gcc/lib/gcc/sh3eb-elf/9.3.0/libgint-cg.a(exch.c.o)
                0x00000000081016fc                _gint_exc_catcher
                0x0000000008101700                _gint_exc_panic
 .gint.data     0x0000000008101704       0x24 /home/benjamingr/Documents/casio/gcc/lib/gcc/sh3eb-elf/9.3.0/libgint-cg.a(keysc.c.o)
 .gint.data     0x0000000008101728       0x30 /home/benjamingr/Documents/casio/gcc/lib/gcc/sh3eb-elf/9.3.0/libgint-cg.a(tmu.c.o)
                0x0000000008101760                . = ALIGN (0x10)
 *fill*         0x0000000008101758        0x8 
                0x00000000000000a0                _sgdata = SIZEOF (.gint.data)

.gint.bss       0x0000000008101760      0x530 load address 0x0000000000305710
 *(.gint.bss .gint.bss.*)
 .gint.bss      0x0000000008101760       0x10 /home/benjamingr/Documents/casio/gcc/lib/gcc/sh3eb-elf/9.3.0/libgint-cg.a(r61524.c.o)
 .gint.bss      0x0000000008101770       0xd0 /home/benjamingr/Documents/casio/gcc/lib/gcc/sh3eb-elf/9.3.0/libgint-cg.a(dma.c.o)
 .gint.bss      0x0000000008101840       0x4c /home/benjamingr/Documents/casio/gcc/lib/gcc/sh3eb-elf/9.3.0/libgint-cg.a(intc.c.o)
 .gint.bss      0x000000000810188c       0x40 /home/benjamingr/Documents/casio/gcc/lib/gcc/sh3eb-elf/9.3.0/libgint-cg.a(hardware.c.o)
                0x000000000810188c                _gint
 .gint.bss      0x00000000081018cc       0x10 /home/benjamingr/Documents/casio/gcc/lib/gcc/sh3eb-elf/9.3.0/libgint-cg.a(kernel.c.o)
 .gint.bss      0x00000000081018dc      0x180 /home/benjamingr/Documents/casio/gcc/lib/gcc/sh3eb-elf/9.3.0/libgint-cg.a(keysc.c.o)
 *fill*         0x0000000008101a5c        0x4 
 .gint.bss      0x0000000008101a60      0x200 /home/benjamingr/Documents/casio/gcc/lib/gcc/sh3eb-elf/9.3.0/libgint-cg.a(tmu.c.o)
 .gint.bss      0x0000000008101c60       0x24 /home/benjamingr/Documents/casio/gcc/lib/gcc/sh3eb-elf/9.3.0/libgint-cg.a(cpg.c.o)
                0x0000000008101c90                . = ALIGN (0x10)
 *fill*         0x0000000008101c84        0xc 
                0x0000000000000530                _sgbss = SIZEOF (.gint.bss)

/DISCARD/
 *(.gint.bss.sh3)
 *(.gint.data.sh3)
 *(.debug_info .debug_abbrev .debug_loc .debug_aranges .debug_ranges .debug_line .debug_str)
 *(.jcr)
 *(.eh_frame_hdr)
 *(.eh_frame)
 *(.comment)
OUTPUT(build-cg/AST3.elf elf32-sh)
